target datalayout = "e-m:e-p270:32:32-p271:32:32-p272:64:64-i64:64-i128:128-f80:128-n8:16:32:64-S128"
target triple = "x86_64-pc-linux-gnu"

%struct.tr2_dst = type { i32, i32, i8 }

@.str = private unnamed_addr constant [1 x i8] zeroinitializer, align 1
@.str.1 = private unnamed_addr constant [2 x i8] c"0\00", align 1
@.str.2 = private unnamed_addr constant [6 x i8] c"false\00", align 1
@.str.3 = private unnamed_addr constant [2 x i8] c"1\00", align 1
@.str.4 = private unnamed_addr constant [5 x i8] c"true\00", align 1
@sane_ctype = external constant [256 x i8], align 16
@.str.5 = private unnamed_addr constant [9 x i8] c"af_unix:\00", align 1
@.str.19 = private unnamed_addr constant [37 x i8] c"trace2: unknown value for '%s': '%s'\00", align 1

; Function Attrs: inlinehint nounwind uwtable
define internal i32 @git_has_dos_drive_prefix(ptr noundef %0) #5 {
  %2 = alloca ptr, align 8
  store ptr %0, ptr %2, align 8, !tbaa !13
  ret i32 0
}

; Function Attrs: inlinehint nounwind uwtable
define internal i32 @git_is_dir_sep(i32 noundef %0) #5 {
  %2 = alloca i32, align 4
  store i32 %0, ptr %2, align 4, !tbaa !21
  %3 = load i32, ptr %2, align 4, !tbaa !21
  %4 = icmp eq i32 %3, 47
  %5 = zext i1 %4 to i32
  ret i32 %5
}

; Function Attrs: nounwind uwtable
define internal void @tr2_dst_malformed_warning(ptr noundef %0, ptr noundef %1) #0 {
  %3 = alloca ptr, align 8
  %4 = alloca ptr, align 8
  store ptr %0, ptr %3, align 8, !tbaa !4
  store ptr %1, ptr %4, align 8, !tbaa !13
  %5 = load ptr, ptr %3, align 8, !tbaa !4
  %6 = getelementptr inbounds nuw %struct.tr2_dst, ptr %5, i32 0, i32 0
  %7 = load i32, ptr %6, align 4, !tbaa !12
  %8 = call ptr @tr2_sysenv_display_name(i32 noundef %7)
  %9 = load ptr, ptr %4, align 8, !tbaa !13
  call void (ptr, ...) @warning(ptr noundef @.str.19, ptr noundef %8, ptr noundef %9)
  ret void
}

; Function Attrs: inlinehint nounwind uwtable
define internal i32 @is_absolute_path(ptr noundef %0) #5 {
  %2 = alloca ptr, align 8
  store ptr %0, ptr %2, align 8, !tbaa !13
  %3 = load ptr, ptr %2, align 8, !tbaa !13
  %4 = getelementptr inbounds i8, ptr %3, i64 0
  %5 = load i8, ptr %4, align 1, !tbaa !15
  %6 = sext i8 %5 to i32
  %7 = call i32 @git_is_dir_sep(i32 noundef %6)
  %8 = icmp ne i32 %7, 0
  br i1 %8, label %13, label %9

9:                                                ; preds = %1
  %10 = load ptr, ptr %2, align 8, !tbaa !13
  %11 = call i32 @git_has_dos_drive_prefix(ptr noundef %10)
  %12 = icmp ne i32 %11, 0
  br label %13

13:                                               ; preds = %9, %1
  %14 = phi i1 [ true, %1 ], [ %12, %9 ]
  %15 = zext i1 %14 to i32
  ret i32 %15
}

; Function Attrs: inlinehint nounwind willreturn memory(read) uwtable
define available_externally i32 @atoi(ptr noundef nonnull %0) #4 {
  %2 = alloca ptr, align 8
  store ptr %0, ptr %2, align 8, !tbaa !13
  %3 = load ptr, ptr %2, align 8, !tbaa !13
  %4 = call i64 @strtol(ptr noundef %3, ptr noundef null, i32 noundef 10) #10
  %5 = trunc i64 %4 to i32
  ret i32 %5
}

; Function Attrs: nounwind uwtable
define dso_local i32 @tr2_dst_get_trace_fd(ptr noundef %0) #0 {
  %2 = alloca i32, align 4
  %3 = alloca ptr, align 8
  %4 = alloca ptr, align 8
  %5 = alloca i32, align 4
  store ptr %0, ptr %3, align 8, !tbaa !4
  call void @llvm.lifetime.start.p0(i64 8, ptr %4) #10
  %6 = load ptr, ptr %3, align 8, !tbaa !4
  %7 = getelementptr inbounds nuw %struct.tr2_dst, ptr %6, i32 0, i32 2
  %8 = load i8, ptr %7, align 4
  %9 = and i8 %8, 1
  %10 = zext i8 %9 to i32
  %11 = icmp ne i32 %10, 0
  br i1 %11, label %12, label %16

12:                                               ; preds = %1
  %13 = load ptr, ptr %3, align 8, !tbaa !4
  %14 = getelementptr inbounds nuw %struct.tr2_dst, ptr %13, i32 0, i32 1
  %15 = load i32, ptr %14, align 4, !tbaa !9
  store i32 %15, ptr %2, align 4
  store i32 1, ptr %5, align 4
  br label %109

16:                                               ; preds = %1
  %17 = load ptr, ptr %3, align 8, !tbaa !4
  %18 = getelementptr inbounds nuw %struct.tr2_dst, ptr %17, i32 0, i32 2
  %19 = load i8, ptr %18, align 4
  %20 = and i8 %19, -2
  %21 = or i8 %20, 1
  store i8 %21, ptr %18, align 4
  %22 = load ptr, ptr %3, align 8, !tbaa !4
  %23 = getelementptr inbounds nuw %struct.tr2_dst, ptr %22, i32 0, i32 0
  %24 = load i32, ptr %23, align 4, !tbaa !12
  %25 = call ptr @tr2_sysenv_get(i32 noundef %24)
  store ptr %25, ptr %4, align 8, !tbaa !13
  %26 = load ptr, ptr %4, align 8, !tbaa !13
  %27 = icmp ne ptr %26, null
  br i1 %27, label %28, label %40

28:                                               ; preds = %16
  %29 = load ptr, ptr %4, align 8, !tbaa !13
  %30 = call i32 @strcmp(ptr noundef %29, ptr noundef @.str) #11
  %31 = icmp ne i32 %30, 0
  br i1 %31, label %32, label %40

32:                                               ; preds = %28
  %33 = load ptr, ptr %4, align 8, !tbaa !13
  %34 = call i32 @strcmp(ptr noundef %33, ptr noundef @.str.1) #11
  %35 = icmp ne i32 %34, 0
  br i1 %35, label %36, label %40

36:                                               ; preds = %32
  %37 = load ptr, ptr %4, align 8, !tbaa !13
  %38 = call i32 @strcasecmp(ptr noundef %37, ptr noundef @.str.2) #11
  %39 = icmp ne i32 %38, 0
  br i1 %39, label %46, label %40

40:                                               ; preds = %36, %32, %28, %16
  %41 = load ptr, ptr %3, align 8, !tbaa !4
  %42 = getelementptr inbounds nuw %struct.tr2_dst, ptr %41, i32 0, i32 1
  store i32 0, ptr %42, align 4, !tbaa !9
  %43 = load ptr, ptr %3, align 8, !tbaa !4
  %44 = getelementptr inbounds nuw %struct.tr2_dst, ptr %43, i32 0, i32 1
  %45 = load i32, ptr %44, align 4, !tbaa !9
  store i32 %45, ptr %2, align 4
  store i32 1, ptr %5, align 4
  br label %109

46:                                               ; preds = %36
  %47 = load ptr, ptr %4, align 8, !tbaa !13
  %48 = call i32 @strcmp(ptr noundef %47, ptr noundef @.str.3) #11
  %49 = icmp ne i32 %48, 0
  br i1 %49, label %50, label %54

50:                                               ; preds = %46
  %51 = load ptr, ptr %4, align 8, !tbaa !13
  %52 = call i32 @strcasecmp(ptr noundef %51, ptr noundef @.str.4) #11
  %53 = icmp ne i32 %52, 0
  br i1 %53, label %60, label %54

54:                                               ; preds = %50, %46
  %55 = load ptr, ptr %3, align 8, !tbaa !4
  %56 = getelementptr inbounds nuw %struct.tr2_dst, ptr %55, i32 0, i32 1
  store i32 2, ptr %56, align 4, !tbaa !9
  %57 = load ptr, ptr %3, align 8, !tbaa !4
  %58 = getelementptr inbounds nuw %struct.tr2_dst, ptr %57, i32 0, i32 1
  %59 = load i32, ptr %58, align 4, !tbaa !9
  store i32 %59, ptr %2, align 4
  store i32 1, ptr %5, align 4
  br label %109

60:                                               ; preds = %50
  %61 = load ptr, ptr %4, align 8, !tbaa !13
  %62 = call i64 @strlen(ptr noundef %61) #11
  %63 = icmp eq i64 %62, 1
  br i1 %63, label %64, label %81

64:                                               ; preds = %60
  %65 = load ptr, ptr %4, align 8, !tbaa !13
  %66 = load i8, ptr %65, align 1, !tbaa !15
  %67 = zext i8 %66 to i64
  %68 = getelementptr inbounds nuw [256 x i8], ptr @sane_ctype, i64 0, i64 %67
  %69 = load i8, ptr %68, align 1, !tbaa !15
  %70 = zext i8 %69 to i32
  %71 = and i32 %70, 2
  %72 = icmp ne i32 %71, 0
  br i1 %72, label %73, label %81

73:                                               ; preds = %64
  %74 = load ptr, ptr %4, align 8, !tbaa !13
  %75 = call i32 @atoi(ptr noundef %74) #11
  %76 = load ptr, ptr %3, align 8, !tbaa !4
  %77 = getelementptr inbounds nuw %struct.tr2_dst, ptr %76, i32 0, i32 1
  store i32 %75, ptr %77, align 4, !tbaa !9
  %78 = load ptr, ptr %3, align 8, !tbaa !4
  %79 = getelementptr inbounds nuw %struct.tr2_dst, ptr %78, i32 0, i32 1
  %80 = load i32, ptr %79, align 4, !tbaa !9
  store i32 %80, ptr %2, align 4
  store i32 1, ptr %5, align 4
  br label %109

81:                                               ; preds = %64, %60
  %82 = load ptr, ptr %4, align 8, !tbaa !13
  %83 = call i32 @is_absolute_path(ptr noundef %82)
  %84 = icmp ne i32 %83, 0
  br i1 %84, label %85, label %97

85:                                               ; preds = %81
  %86 = load ptr, ptr %4, align 8, !tbaa !13
  %87 = call i32 @is_directory(ptr noundef %86)
  %88 = icmp ne i32 %87, 0
  br i1 %88, label %89, label %93

89:                                               ; preds = %85
  %90 = load ptr, ptr %3, align 8, !tbaa !4
  %91 = load ptr, ptr %4, align 8, !tbaa !13
  %92 = call i32 @tr2_dst_try_auto_path(ptr noundef %90, ptr noundef %91)
  store i32 %92, ptr %2, align 4
  store i32 1, ptr %5, align 4
  br label %109

93:                                               ; preds = %85
  %94 = load ptr, ptr %3, align 8, !tbaa !4
  %95 = load ptr, ptr %4, align 8, !tbaa !13
  %96 = call i32 @tr2_dst_try_path(ptr noundef %94, ptr noundef %95)
  store i32 %96, ptr %2, align 4
  store i32 1, ptr %5, align 4
  br label %109

97:                                               ; preds = %81
  %98 = load ptr, ptr %4, align 8, !tbaa !13
  %99 = call i32 @starts_with(ptr noundef %98, ptr noundef @.str.5)
  %100 = icmp ne i32 %99, 0
  br i1 %100, label %101, label %105

101:                                              ; preds = %97
  %102 = load ptr, ptr %3, align 8, !tbaa !4
  %103 = load ptr, ptr %4, align 8, !tbaa !13
  %104 = call i32 @tr2_dst_try_unix_domain_socket(ptr noundef %102, ptr noundef %103)
  store i32 %104, ptr %2, align 4
  store i32 1, ptr %5, align 4
  br label %109

105:                                              ; preds = %97
  %106 = load ptr, ptr %3, align 8, !tbaa !4
  %107 = load ptr, ptr %4, align 8, !tbaa !13
  call void @tr2_dst_malformed_warning(ptr noundef %106, ptr noundef %107)
  %108 = load ptr, ptr %3, align 8, !tbaa !4
  call void @tr2_dst_trace_disable(ptr noundef %108)
  store i32 0, ptr %2, align 4
  store i32 1, ptr %5, align 4
  br label %109

109:                                              ; preds = %105, %101, %93, %89, %73, %54, %40, %12
  call void @llvm.lifetime.end.p0(i64 8, ptr %4) #10
  %110 = load i32, ptr %2, align 4
  ret i32 %110
}