; Function Attrs: nounwind uwtable
define dso_local i32 @tr2_dst_get_trace_fd(ptr noundef captures(none) %0) local_unnamed_addr #0 {
  %2 = getelementptr inbounds nuw i8, ptr %0, i64 8
  %3 = load i8, ptr %2, align 4
  %4 = and i8 %3, 1
  %.not = icmp eq i8 %4, 0
  br i1 %.not, label %8, label %5

5:                                                ; preds = %1
  %6 = getelementptr inbounds nuw i8, ptr %0, i64 4
  %7 = load i32, ptr %6, align 4, !tbaa !4
  br label %51

8:                                                ; preds = %1
  %9 = or disjoint i8 %3, 1
  store i8 %9, ptr %2, align 4
  %10 = load i32, ptr %0, align 4, !tbaa !9
  %11 = tail call ptr @tr2_sysenv_get(i32 noundef %10) #13
  %.not32 = icmp eq ptr %11, null
  br i1 %.not32, label %18, label %12

12:                                               ; preds = %8
  %strcmpload = load i8, ptr %11, align 1
  switch i8 %strcmpload, label %.tail.thread [
    i8 0, label %18
    i8 48, label %.tail
  ]

.tail:                                            ; preds = %12
  %13 = getelementptr inbounds nuw i8, ptr %11, i64 1
  %14 = load i8, ptr %13, align 1
  %15 = icmp eq i8 %14, 0
  br i1 %15, label %18, label %.thread

.tail.thread:                                     ; preds = %12
  %16 = tail call i32 @strcasecmp(ptr noundef nonnull %11, ptr noundef nonnull @.str.2) #14
  %.not35 = icmp eq i32 %16, 0
  br i1 %.not35, label %18, label %sub_045

.thread:                                          ; preds = %.tail
  %17 = tail call i32 @strcasecmp(ptr noundef nonnull %11, ptr noundef nonnull @.str.2) #14
  %.not3551 = icmp eq i32 %17, 0
  br i1 %.not3551, label %18, label %.tail44.thread

18:                                               ; preds = %12, %.thread, %.tail.thread, %.tail, %8
  %19 = getelementptr inbounds nuw i8, ptr %0, i64 4
  store i32 0, ptr %19, align 4, !tbaa !4
  br label %51

sub_045:                                          ; preds = %.tail.thread
  %.not49 = icmp eq i8 %strcmpload, 49
  br i1 %.not49, label %.tail44, label %.tail44.thread

.tail44:                                          ; preds = %sub_045
  %20 = getelementptr inbounds nuw i8, ptr %11, i64 1
  %21 = load i8, ptr %20, align 1
  %22 = icmp eq i8 %21, 0
  br i1 %22, label %24, label %.tail44.thread

.tail44.thread:                                   ; preds = %.thread, %sub_045, %.tail44
  %23 = tail call i32 @strcasecmp(ptr noundef nonnull %11, ptr noundef nonnull @.str.4) #14
  %.not37 = icmp eq i32 %23, 0
  br i1 %.not37, label %24, label %26

24:                                               ; preds = %.tail44.thread, %.tail44
  %25 = getelementptr inbounds nuw i8, ptr %0, i64 4
  store i32 2, ptr %25, align 4, !tbaa !4
  br label %51

26:                                               ; preds = %.tail44.thread
  %27 = tail call i64 @strlen(ptr noundef nonnull dereferenceable(1) %11) #14
  %28 = icmp eq i64 %27, 1
  br i1 %28, label %29, label %38

29:                                               ; preds = %26
  %30 = zext i8 %strcmpload to i64
  %31 = getelementptr inbounds nuw [256 x i8], ptr @sane_ctype, i64 0, i64 %30
  %32 = load i8, ptr %31, align 1, !tbaa !10
  %33 = and i8 %32, 2
  %.not38 = icmp eq i8 %33, 0
  br i1 %.not38, label %38, label %34

34:                                               ; preds = %29
  %35 = tail call i64 @strtol(ptr noundef nonnull captures(none) %11, ptr noundef null, i32 noundef 10) #13
  %36 = trunc i64 %35 to i32
  %37 = getelementptr inbounds nuw i8, ptr %0, i64 4
  store i32 %36, ptr %37, align 4, !tbaa !4
  br label %51

38:                                               ; preds = %29, %26
  %.not43 = icmp eq i8 %strcmpload, 47
  br i1 %.not43, label %39, label %45

39:                                               ; preds = %38
  %40 = tail call i32 @is_directory(ptr noundef nonnull %11) #13
  %.not41 = icmp eq i32 %40, 0
  br i1 %.not41, label %43, label %41

41:                                               ; preds = %39
  %42 = tail call fastcc i32 @tr2_dst_try_auto_path(ptr noundef nonnull %0, ptr noundef %11)
  br label %51

43:                                               ; preds = %39
  %44 = tail call fastcc i32 @tr2_dst_try_path(ptr noundef nonnull %0, ptr noundef %11)
  br label %51

45:                                               ; preds = %38
  %46 = tail call i32 @starts_with(ptr noundef nonnull %11, ptr noundef nonnull @.str.5) #13
  %.not40 = icmp eq i32 %46, 0
  br i1 %.not40, label %49, label %47

47:                                               ; preds = %45
  %48 = tail call fastcc i32 @tr2_dst_try_unix_domain_socket(ptr noundef nonnull %0, ptr noundef %11)
  br label %51

49:                                               ; preds = %45
  %.val42 = load i32, ptr %0, align 4, !tbaa !9
  %50 = tail call ptr @tr2_sysenv_display_name(i32 noundef %.val42) #13
  tail call void (ptr, ...) @warning(ptr noundef nonnull @.str.19, ptr noundef %50, ptr noundef nonnull %11) #13
  tail call void @tr2_dst_trace_disable(ptr noundef nonnull %0)
  br label %51

51:                                               ; preds = %49, %47, %43, %41, %34, %24, %18, %5
  %.0 = phi i32 [ %7, %5 ], [ %36, %34 ], [ %42, %41 ], [ %44, %43 ], [ %48, %47 ], [ 0, %49 ], [ 2, %24 ], [ 0, %18 ]
  ret i32 %.0
}